target datalayout = "e-m:e-p270:32:32-p271:32:32-p272:64:64-i64:64-i128:128-f80:128-n8:16:32:64-S128"
target triple = "x86_64-pc-linux-gnu"

%struct.ggml_tensor = type { i32, ptr, [4 x i64], [4 x i64], i32, [16 x i32], i32, [10 x ptr], ptr, i64, ptr, [64 x i8], ptr, [8 x i8] }

; Function Attrs: nounwind uwtable
define ptr @ggml_conv_1d(ptr noundef %0, ptr noundef %1, ptr noundef %2, i32 noundef %3, i32 noundef %4, i32 noundef %5) #5 {
  %7 = alloca ptr, align 8
  %8 = alloca ptr, align 8
  %9 = alloca ptr, align 8
  %10 = alloca i32, align 4
  %11 = alloca i32, align 4
  %12 = alloca i32, align 4
  %13 = alloca ptr, align 8
  %14 = alloca ptr, align 8
  store ptr %0, ptr %7, align 8, !tbaa !48
  store ptr %1, ptr %8, align 8, !tbaa !54
  store ptr %2, ptr %9, align 8, !tbaa !54
  store i32 %3, ptr %10, align 4, !tbaa !8
  store i32 %4, ptr %11, align 4, !tbaa !8
  store i32 %5, ptr %12, align 4, !tbaa !8
  call void @llvm.lifetime.start.p0(i64 8, ptr %13) #14
  %15 = load ptr, ptr %7, align 8, !tbaa !48
  %16 = load ptr, ptr %8, align 8, !tbaa !54
  %17 = load ptr, ptr %9, align 8, !tbaa !54
  %18 = load i32, ptr %10, align 4, !tbaa !8
  %19 = load i32, ptr %11, align 4, !tbaa !8
  %20 = load i32, ptr %12, align 4, !tbaa !8
  %21 = call ptr @ggml_im2col(ptr noundef %15, ptr noundef %16, ptr noundef %17, i32 noundef %18, i32 noundef 0, i32 noundef %19, i32 noundef 0, i32 noundef %20, i32 noundef 0, i1 noundef zeroext false, i32 noundef 1)
  store ptr %21, ptr %13, align 8, !tbaa !54
  call void @llvm.lifetime.start.p0(i64 8, ptr %14) #14
  %22 = load ptr, ptr %7, align 8, !tbaa !48
  %23 = load ptr, ptr %7, align 8, !tbaa !48
  %24 = load ptr, ptr %13, align 8, !tbaa !54
  %25 = load ptr, ptr %13, align 8, !tbaa !54
  %26 = getelementptr inbounds nuw %struct.ggml_tensor, ptr %25, i32 0, i32 2
  %27 = getelementptr inbounds [4 x i64], ptr %26, i64 0, i64 0
  %28 = load i64, ptr %27, align 8, !tbaa !19
  %29 = load ptr, ptr %13, align 8, !tbaa !54
  %30 = getelementptr inbounds nuw %struct.ggml_tensor, ptr %29, i32 0, i32 2
  %31 = getelementptr inbounds [4 x i64], ptr %30, i64 0, i64 2
  %32 = load i64, ptr %31, align 8, !tbaa !19
  %33 = load ptr, ptr %13, align 8, !tbaa !54
  %34 = getelementptr inbounds nuw %struct.ggml_tensor, ptr %33, i32 0, i32 2
  %35 = getelementptr inbounds [4 x i64], ptr %34, i64 0, i64 1
  %36 = load i64, ptr %35, align 8, !tbaa !19
  %37 = mul nsw i64 %32, %36
  %38 = call ptr @ggml_reshape_2d(ptr noundef %23, ptr noundef %24, i64 noundef %28, i64 noundef %37)
  %39 = load ptr, ptr %7, align 8, !tbaa !48
  %40 = load ptr, ptr %8, align 8, !tbaa !54
  %41 = load ptr, ptr %8, align 8, !tbaa !54
  %42 = getelementptr inbounds nuw %struct.ggml_tensor, ptr %41, i32 0, i32 2
  %43 = getelementptr inbounds [4 x i64], ptr %42, i64 0, i64 0
  %44 = load i64, ptr %43, align 8, !tbaa !19
  %45 = load ptr, ptr %8, align 8, !tbaa !54
  %46 = getelementptr inbounds nuw %struct.ggml_tensor, ptr %45, i32 0, i32 2
  %47 = getelementptr inbounds [4 x i64], ptr %46, i64 0, i64 1
  %48 = load i64, ptr %47, align 8, !tbaa !19
  %49 = mul nsw i64 %44, %48
  %50 = load ptr, ptr %8, align 8, !tbaa !54
  %51 = getelementptr inbounds nuw %struct.ggml_tensor, ptr %50, i32 0, i32 2
  %52 = getelementptr inbounds [4 x i64], ptr %51, i64 0, i64 2
  %53 = load i64, ptr %52, align 8, !tbaa !19
  %54 = call ptr @ggml_reshape_2d(ptr noundef %39, ptr noundef %40, i64 noundef %49, i64 noundef %53)
  %55 = call ptr @ggml_mul_mat(ptr noundef %22, ptr noundef %38, ptr noundef %54)
  store ptr %55, ptr %14, align 8, !tbaa !54
  %56 = load ptr, ptr %7, align 8, !tbaa !48
  %57 = load ptr, ptr %14, align 8, !tbaa !54
  %58 = load ptr, ptr %13, align 8, !tbaa !54
  %59 = getelementptr inbounds nuw %struct.ggml_tensor, ptr %58, i32 0, i32 2
  %60 = getelementptr inbounds [4 x i64], ptr %59, i64 0, i64 1
  %61 = load i64, ptr %60, align 8, !tbaa !19
  %62 = load ptr, ptr %8, align 8, !tbaa !54
  %63 = getelementptr inbounds nuw %struct.ggml_tensor, ptr %62, i32 0, i32 2
  %64 = getelementptr inbounds [4 x i64], ptr %63, i64 0, i64 2
  %65 = load i64, ptr %64, align 8, !tbaa !19
  %66 = load ptr, ptr %13, align 8, !tbaa !54
  %67 = getelementptr inbounds nuw %struct.ggml_tensor, ptr %66, i32 0, i32 2
  %68 = getelementptr inbounds [4 x i64], ptr %67, i64 0, i64 2
  %69 = load i64, ptr %68, align 8, !tbaa !19
  %70 = call ptr @ggml_reshape_3d(ptr noundef %56, ptr noundef %57, i64 noundef %61, i64 noundef %65, i64 noundef %69)
  store ptr %70, ptr %14, align 8, !tbaa !54
  %71 = load ptr, ptr %14, align 8, !tbaa !54
  call void @llvm.lifetime.end.p0(i64 8, ptr %14) #14
  call void @llvm.lifetime.end.p0(i64 8, ptr %13) #14
  ret ptr %71
}