; Function Attrs: nounwind uwtable
define noundef ptr @ggml_conv_1d(ptr noundef captures(none) %0, ptr noundef %1, ptr noundef %2, i32 noundef %3, i32 noundef %4, i32 noundef %5) local_unnamed_addr #4 {
  %7 = tail call ptr @ggml_im2col(ptr noundef %0, ptr noundef %1, ptr noundef %2, i32 noundef %3, i32 noundef 0, i32 noundef %4, i32 noundef 0, i32 noundef %5, i32 noundef 0, i1 noundef zeroext false, i32 noundef 1)
  %8 = getelementptr inbounds nuw i8, ptr %7, i64 16
  %9 = load i64, ptr %8, align 8, !tbaa !39
  %10 = getelementptr inbounds nuw i8, ptr %7, i64 32
  %11 = load i64, ptr %10, align 8, !tbaa !39
  %12 = getelementptr inbounds nuw i8, ptr %7, i64 24
  %13 = load i64, ptr %12, align 8, !tbaa !39
  %14 = mul nsw i64 %13, %11
  %15 = tail call ptr @ggml_reshape_2d(ptr noundef %0, ptr noundef %7, i64 noundef %9, i64 noundef %14)
  %16 = getelementptr inbounds nuw i8, ptr %1, i64 16
  %17 = load i64, ptr %16, align 8, !tbaa !39
  %18 = getelementptr inbounds nuw i8, ptr %1, i64 24
  %19 = load i64, ptr %18, align 8, !tbaa !39
  %20 = mul nsw i64 %19, %17
  %21 = getelementptr inbounds nuw i8, ptr %1, i64 32
  %22 = load i64, ptr %21, align 8, !tbaa !39
  %23 = tail call ptr @ggml_reshape_2d(ptr noundef %0, ptr noundef %1, i64 noundef %20, i64 noundef %22)
  %24 = tail call ptr @ggml_mul_mat(ptr noundef %0, ptr noundef %15, ptr noundef %23)
  %25 = load i64, ptr %12, align 8, !tbaa !39
  %26 = load i64, ptr %21, align 8, !tbaa !39
  %27 = load i64, ptr %10, align 8, !tbaa !39
  %28 = tail call ptr @ggml_reshape_3d(ptr noundef %0, ptr noundef %24, i64 noundef %25, i64 noundef %26, i64 noundef %27)
  ret ptr %28
}